target datalayout = "e-m:e-p270:32:32-p271:32:32-p272:64:64-i64:64-i128:128-f80:128-n8:16:32:64-S128"
target triple = "x86_64-pc-linux-gnu"

%struct.H5P_genprop_t = type { ptr, i64, ptr, i32, i8, ptr, ptr, ptr, ptr, ptr, ptr, ptr, ptr, ptr }

@H5P_init_g = external global i8, align 1
@H5_libterm_g = external global i8, align 1
@.str.7 = private unnamed_addr constant [100 x i8] c"generated/home/dtcxzyw/WorkSpace/Projects/compilers/llvm-opt-benchmark/bench/hdf5/hdf5/src/H5Pint.c\00", align 1
@H5E_RESOURCE_g = external global i64, align 8
@H5E_NOSPACE_g = external global i64, align 8
@.str.20 = private unnamed_addr constant [25 x i8] c"memory allocation failed\00", align 1
@H5_H5P_genprop_t_reg_free_list = internal global { i8, [3 x i8], i32, i32, [4 x i8], ptr, i64, ptr } { i8 0, [3 x i8] zeroinitializer, i32 0, i32 0, [4 x i8] zeroinitializer, ptr @.str.86, i64 104, ptr null }, align 8
@__func__.H5P__create_prop = private unnamed_addr constant [17 x i8] c"H5P__create_prop\00", align 1

; Function Attrs: nounwind uwtable
define internal ptr @H5P__create_prop(ptr noundef %0, i64 noundef %1, i32 noundef %2, ptr noundef %3, ptr noundef %4, ptr noundef %5, ptr noundef %6, ptr noundef %7, ptr noundef %8, ptr noundef %9, ptr noundef %10, ptr noundef %11, ptr noundef %12) #0 {
  %14 = alloca ptr, align 8
  %15 = alloca i64, align 8
  %16 = alloca i32, align 4
  %17 = alloca ptr, align 8
  %18 = alloca ptr, align 8
  %19 = alloca ptr, align 8
  %20 = alloca ptr, align 8
  %21 = alloca ptr, align 8
  %22 = alloca ptr, align 8
  %23 = alloca ptr, align 8
  %24 = alloca ptr, align 8
  %25 = alloca ptr, align 8
  %26 = alloca ptr, align 8
  %27 = alloca ptr, align 8
  %28 = alloca ptr, align 8
  %29 = alloca i8, align 1
  store ptr %0, ptr %14, align 8, !tbaa !39
  store i64 %1, ptr %15, align 8, !tbaa !11
  store i32 %2, ptr %16, align 4, !tbaa !3
  store ptr %3, ptr %17, align 8, !tbaa !40
  store ptr %4, ptr %18, align 8, !tbaa !40
  store ptr %5, ptr %19, align 8, !tbaa !40
  store ptr %6, ptr %20, align 8, !tbaa !40
  store ptr %7, ptr %21, align 8, !tbaa !40
  store ptr %8, ptr %22, align 8, !tbaa !40
  store ptr %9, ptr %23, align 8, !tbaa !40
  store ptr %10, ptr %24, align 8, !tbaa !40
  store ptr %11, ptr %25, align 8, !tbaa !40
  store ptr %12, ptr %26, align 8, !tbaa !40
  call void @llvm.lifetime.start.p0(i64 8, ptr %27) #8
  store ptr null, ptr %27, align 8, !tbaa !68
  call void @llvm.lifetime.start.p0(i64 8, ptr %28) #8
  store ptr null, ptr %28, align 8, !tbaa !68
  call void @llvm.lifetime.start.p0(i64 1, ptr %29) #8
  store i8 0, ptr %29, align 1, !tbaa !7
  %30 = load i8, ptr @H5P_init_g, align 1, !tbaa !7, !range !9, !noundef !10
  %31 = trunc i8 %30 to i1
  br i1 %31, label %36, label %32

32:                                               ; preds = %13
  %33 = load i8, ptr @H5_libterm_g, align 1, !tbaa !7, !range !9, !noundef !10
  %34 = trunc i8 %33 to i1
  %35 = xor i1 %34, true
  br label %36

36:                                               ; preds = %32, %13
  %37 = phi i1 [ true, %13 ], [ %35, %32 ]
  %38 = xor i1 %37, true
  %39 = xor i1 %38, true
  %40 = zext i1 %39 to i32
  %41 = sext i32 %40 to i64
  %42 = call i64 @llvm.expect.i64(i64 %41, i64 1)
  %43 = icmp ne i64 %42, 0
  br i1 %43, label %44, label %186

44:                                               ; preds = %36
  %45 = call noalias ptr @H5FL_reg_malloc(ptr noundef @H5_H5P_genprop_t_reg_free_list)
  store ptr %45, ptr %27, align 8, !tbaa !68
  %46 = icmp eq ptr null, %45
  br i1 %46, label %47, label %66

47:                                               ; preds = %44
  br label %48

48:                                               ; preds = %47
  br label %49

49:                                               ; preds = %48
  br label %50

50:                                               ; preds = %49
  %51 = load i64, ptr @H5E_RESOURCE_g, align 8, !tbaa !11
  %52 = load i64, ptr @H5E_NOSPACE_g, align 8, !tbaa !11
  %53 = call i32 (ptr, ptr, i32, i64, i64, ptr, ...) @H5E_printf_stack(ptr noundef @.str.7, ptr noundef @__func__.H5P__create_prop, i32 noundef 1305, i64 noundef %51, i64 noundef %52, ptr noundef @.str.20)
  br label %54

54:                                               ; preds = %50
  br label %55

55:                                               ; preds = %54
  store i8 1, ptr %29, align 1, !tbaa !7
  %56 = load i8, ptr %29, align 1, !tbaa !7, !range !9, !noundef !10
  %57 = trunc i8 %56 to i1
  %58 = zext i1 %57 to i8
  store i8 %58, ptr %29, align 1, !tbaa !7
  br label %59

59:                                               ; preds = %55
  br label %60

60:                                               ; preds = %59
  br label %61

61:                                               ; preds = %60
  store ptr null, ptr %28, align 8, !tbaa !68
  br label %155

62:                                               ; No predecessors!
  br label %63

63:                                               ; preds = %62
  br label %64

64:                                               ; preds = %63
  br label %65

65:                                               ; preds = %64
  br label %66

66:                                               ; preds = %65, %44
  %67 = load ptr, ptr %14, align 8, !tbaa !39
  %68 = call noalias ptr @H5MM_xstrdup(ptr noundef %67)
  %69 = load ptr, ptr %27, align 8, !tbaa !68
  %70 = getelementptr inbounds nuw %struct.H5P_genprop_t, ptr %69, i32 0, i32 0
  store ptr %68, ptr %70, align 8, !tbaa !71
  %71 = load ptr, ptr %27, align 8, !tbaa !68
  %72 = getelementptr inbounds nuw %struct.H5P_genprop_t, ptr %71, i32 0, i32 4
  store i8 0, ptr %72, align 4, !tbaa !74
  %73 = load i64, ptr %15, align 8, !tbaa !11
  %74 = load ptr, ptr %27, align 8, !tbaa !68
  %75 = getelementptr inbounds nuw %struct.H5P_genprop_t, ptr %74, i32 0, i32 1
  store i64 %73, ptr %75, align 8, !tbaa !76
  %76 = load i32, ptr %16, align 4, !tbaa !3
  %77 = load ptr, ptr %27, align 8, !tbaa !68
  %78 = getelementptr inbounds nuw %struct.H5P_genprop_t, ptr %77, i32 0, i32 3
  store i32 %76, ptr %78, align 8, !tbaa !73
  %79 = load ptr, ptr %17, align 8, !tbaa !40
  %80 = icmp ne ptr %79, null
  br i1 %80, label %81, label %116

81:                                               ; preds = %66
  %82 = load ptr, ptr %27, align 8, !tbaa !68
  %83 = getelementptr inbounds nuw %struct.H5P_genprop_t, ptr %82, i32 0, i32 1
  %84 = load i64, ptr %83, align 8, !tbaa !76
  %85 = call noalias ptr @malloc(i64 noundef %84) #9
  %86 = load ptr, ptr %27, align 8, !tbaa !68
  %87 = getelementptr inbounds nuw %struct.H5P_genprop_t, ptr %86, i32 0, i32 2
  store ptr %85, ptr %87, align 8, !tbaa !75
  %88 = icmp eq ptr null, %85
  br i1 %88, label %89, label %108

89:                                               ; preds = %81
  br label %90

90:                                               ; preds = %89
  br label %91

91:                                               ; preds = %90
  br label %92

92:                                               ; preds = %91
  %93 = load i64, ptr @H5E_RESOURCE_g, align 8, !tbaa !11
  %94 = load i64, ptr @H5E_NOSPACE_g, align 8, !tbaa !11
  %95 = call i32 (ptr, ptr, i32, i64, i64, ptr, ...) @H5E_printf_stack(ptr noundef @.str.7, ptr noundef @__func__.H5P__create_prop, i32 noundef 1316, i64 noundef %93, i64 noundef %94, ptr noundef @.str.20)
  br label %96

96:                                               ; preds = %92
  br label %97

97:                                               ; preds = %96
  store i8 1, ptr %29, align 1, !tbaa !7
  %98 = load i8, ptr %29, align 1, !tbaa !7, !range !9, !noundef !10
  %99 = trunc i8 %98 to i1
  %100 = zext i1 %99 to i8
  store i8 %100, ptr %29, align 1, !tbaa !7
  br label %101

101:                                              ; preds = %97
  br label %102

102:                                              ; preds = %101
  br label %103

103:                                              ; preds = %102
  store ptr null, ptr %28, align 8, !tbaa !68
  br label %155

104:                                              ; No predecessors!
  br label %105

105:                                              ; preds = %104
  br label %106

106:                                              ; preds = %105
  br label %107

107:                                              ; preds = %106
  br label %108

108:                                              ; preds = %107, %81
  %109 = load ptr, ptr %27, align 8, !tbaa !68
  %110 = getelementptr inbounds nuw %struct.H5P_genprop_t, ptr %109, i32 0, i32 2
  %111 = load ptr, ptr %110, align 8, !tbaa !75
  %112 = load ptr, ptr %17, align 8, !tbaa !40
  %113 = load ptr, ptr %27, align 8, !tbaa !68
  %114 = getelementptr inbounds nuw %struct.H5P_genprop_t, ptr %113, i32 0, i32 1
  %115 = load i64, ptr %114, align 8, !tbaa !76
  call void @llvm.memcpy.p0.p0.i64(ptr align 1 %111, ptr align 1 %112, i64 %115, i1 false)
  br label %119

116:                                              ; preds = %66
  %117 = load ptr, ptr %27, align 8, !tbaa !68
  %118 = getelementptr inbounds nuw %struct.H5P_genprop_t, ptr %117, i32 0, i32 2
  store ptr null, ptr %118, align 8, !tbaa !75
  br label %119

119:                                              ; preds = %116, %108
  %120 = load ptr, ptr %18, align 8, !tbaa !40
  %121 = load ptr, ptr %27, align 8, !tbaa !68
  %122 = getelementptr inbounds nuw %struct.H5P_genprop_t, ptr %121, i32 0, i32 5
  store ptr %120, ptr %122, align 8, !tbaa !93
  %123 = load ptr, ptr %19, align 8, !tbaa !40
  %124 = load ptr, ptr %27, align 8, !tbaa !68
  %125 = getelementptr inbounds nuw %struct.H5P_genprop_t, ptr %124, i32 0, i32 6
  store ptr %123, ptr %125, align 8, !tbaa !96
  %126 = load ptr, ptr %20, align 8, !tbaa !40
  %127 = load ptr, ptr %27, align 8, !tbaa !68
  %128 = getelementptr inbounds nuw %struct.H5P_genprop_t, ptr %127, i32 0, i32 7
  store ptr %126, ptr %128, align 8, !tbaa !97
  %129 = load ptr, ptr %21, align 8, !tbaa !40
  %130 = load ptr, ptr %27, align 8, !tbaa !68
  %131 = getelementptr inbounds nuw %struct.H5P_genprop_t, ptr %130, i32 0, i32 8
  store ptr %129, ptr %131, align 8, !tbaa !98
  %132 = load ptr, ptr %22, align 8, !tbaa !40
  %133 = load ptr, ptr %27, align 8, !tbaa !68
  %134 = getelementptr inbounds nuw %struct.H5P_genprop_t, ptr %133, i32 0, i32 9
  store ptr %132, ptr %134, align 8, !tbaa !99
  %135 = load ptr, ptr %23, align 8, !tbaa !40
  %136 = load ptr, ptr %27, align 8, !tbaa !68
  %137 = getelementptr inbounds nuw %struct.H5P_genprop_t, ptr %136, i32 0, i32 10
  store ptr %135, ptr %137, align 8, !tbaa !100
  %138 = load ptr, ptr %24, align 8, !tbaa !40
  %139 = load ptr, ptr %27, align 8, !tbaa !68
  %140 = getelementptr inbounds nuw %struct.H5P_genprop_t, ptr %139, i32 0, i32 11
  store ptr %138, ptr %140, align 8, !tbaa !82
  %141 = load ptr, ptr %25, align 8, !tbaa !40
  %142 = icmp ne ptr %141, null
  br i1 %142, label %143, label %147

143:                                              ; preds = %119
  %144 = load ptr, ptr %25, align 8, !tbaa !40
  %145 = load ptr, ptr %27, align 8, !tbaa !68
  %146 = getelementptr inbounds nuw %struct.H5P_genprop_t, ptr %145, i32 0, i32 12
  store ptr %144, ptr %146, align 8, !tbaa !101
  br label %150

147:                                              ; preds = %119
  %148 = load ptr, ptr %27, align 8, !tbaa !68
  %149 = getelementptr inbounds nuw %struct.H5P_genprop_t, ptr %148, i32 0, i32 12
  store ptr @memcmp, ptr %149, align 8, !tbaa !101
  br label %150

150:                                              ; preds = %147, %143
  %151 = load ptr, ptr %26, align 8, !tbaa !40
  %152 = load ptr, ptr %27, align 8, !tbaa !68
  %153 = getelementptr inbounds nuw %struct.H5P_genprop_t, ptr %152, i32 0, i32 13
  store ptr %151, ptr %153, align 8, !tbaa !88
  %154 = load ptr, ptr %27, align 8, !tbaa !68
  store ptr %154, ptr %28, align 8, !tbaa !68
  br label %155

155:                                              ; preds = %150, %103, %61
  %156 = load ptr, ptr %28, align 8, !tbaa !68
  %157 = icmp eq ptr %156, null
  br i1 %157, label %158, label %185

158:                                              ; preds = %155
  %159 = load ptr, ptr %27, align 8, !tbaa !68
  %160 = icmp ne ptr %159, null
  br i1 %160, label %161, label %184

161:                                              ; preds = %158
  %162 = load ptr, ptr %27, align 8, !tbaa !68
  %163 = getelementptr inbounds nuw %struct.H5P_genprop_t, ptr %162, i32 0, i32 0
  %164 = load ptr, ptr %163, align 8, !tbaa !71
  %165 = icmp ne ptr %164, null
  br i1 %165, label %166, label %171

166:                                              ; preds = %161
  %167 = load ptr, ptr %27, align 8, !tbaa !68
  %168 = getelementptr inbounds nuw %struct.H5P_genprop_t, ptr %167, i32 0, i32 0
  %169 = load ptr, ptr %168, align 8, !tbaa !71
  %170 = call ptr @H5MM_xfree(ptr noundef %169)
  br label %171

171:                                              ; preds = %166, %161
  %172 = load ptr, ptr %27, align 8, !tbaa !68
  %173 = getelementptr inbounds nuw %struct.H5P_genprop_t, ptr %172, i32 0, i32 2
  %174 = load ptr, ptr %173, align 8, !tbaa !75
  %175 = icmp ne ptr %174, null
  br i1 %175, label %176, label %181

176:                                              ; preds = %171
  %177 = load ptr, ptr %27, align 8, !tbaa !68
  %178 = getelementptr inbounds nuw %struct.H5P_genprop_t, ptr %177, i32 0, i32 2
  %179 = load ptr, ptr %178, align 8, !tbaa !75
  %180 = call ptr @H5MM_xfree(ptr noundef %179)
  br label %181

181:                                              ; preds = %176, %171
  %182 = load ptr, ptr %27, align 8, !tbaa !68
  %183 = call ptr @H5FL_reg_free(ptr noundef @H5_H5P_genprop_t_reg_free_list, ptr noundef %182)
  store ptr %183, ptr %27, align 8, !tbaa !68
  br label %184

184:                                              ; preds = %181, %158
  br label %185

185:                                              ; preds = %184, %155
  br label %186

186:                                              ; preds = %185, %36
  %187 = load ptr, ptr %28, align 8, !tbaa !68
  call void @llvm.lifetime.end.p0(i64 1, ptr %29) #8
  call void @llvm.lifetime.end.p0(i64 8, ptr %28) #8
  call void @llvm.lifetime.end.p0(i64 8, ptr %27) #8
  ret ptr %187
}