; Function Attrs: nounwind uwtable
define internal fastcc ptr @H5P__create_prop(ptr noundef %0, i64 noundef %1, i32 noundef range(i32 1, 3) %2, ptr noundef readonly captures(address_is_null) %3, ptr noundef %4, ptr noundef %5, ptr noundef %6, ptr noundef %7, ptr noundef %8, ptr noundef %9, ptr noundef %10, ptr noundef %11, ptr noundef %12) unnamed_addr #0 {
  %14 = load i8, ptr @H5P_init_g, align 1, !tbaa !3, !range !7, !noundef !8
  %15 = trunc nuw i8 %14 to i1
  %16 = load i8, ptr @H5_libterm_g, align 1, !range !7
  %17 = trunc nuw i8 %16 to i1
  %18 = xor i1 %17, true
  %19 = select i1 %15, i1 true, i1 %18
  br i1 %19, label %20, label %.thread, !prof !9

20:                                               ; preds = %13
  %21 = tail call noalias ptr @H5FL_reg_malloc(ptr noundef nonnull @H5_H5P_genprop_t_reg_free_list) #14
  %22 = icmp eq ptr %21, null
  br i1 %22, label %23, label %27

23:                                               ; preds = %20
  %24 = load i64, ptr @H5E_RESOURCE_g, align 8, !tbaa !10
  %25 = load i64, ptr @H5E_NOSPACE_g, align 8, !tbaa !10
  %26 = tail call i32 (ptr, ptr, i32, i64, i64, ptr, ...) @H5E_printf_stack(ptr noundef nonnull @.str.7, ptr noundef nonnull @__func__.H5P__create_prop, i32 noundef 1305, i64 noundef %24, i64 noundef %25, ptr noundef nonnull @.str.20) #14
  br label %.thread

27:                                               ; preds = %20
  %28 = tail call noalias ptr @H5MM_xstrdup(ptr noundef %0) #14
  store ptr %28, ptr %21, align 8, !tbaa !61
  %29 = getelementptr inbounds nuw i8, ptr %21, i64 28
  store i8 0, ptr %29, align 4, !tbaa !71
  %30 = getelementptr inbounds nuw i8, ptr %21, i64 8
  store i64 %1, ptr %30, align 8, !tbaa !73
  %31 = getelementptr inbounds nuw i8, ptr %21, i64 24
  store i32 %2, ptr %31, align 8, !tbaa !70
  %.not = icmp eq ptr %3, null
  br i1 %.not, label %37, label %32

32:                                               ; preds = %27
  %33 = tail call noalias ptr @malloc(i64 noundef %1) #15
  %34 = getelementptr inbounds nuw i8, ptr %21, i64 16
  store ptr %33, ptr %34, align 8, !tbaa !72
  %35 = icmp eq ptr %33, null
  br i1 %35, label %49, label %36

36:                                               ; preds = %32
  tail call void @llvm.memcpy.p0.p0.i64(ptr nonnull align 1 %33, ptr nonnull align 1 %3, i64 %1, i1 false)
  br label %39

37:                                               ; preds = %27
  %38 = getelementptr inbounds nuw i8, ptr %21, i64 16
  store ptr null, ptr %38, align 8, !tbaa !72
  br label %39

39:                                               ; preds = %37, %36
  %40 = getelementptr inbounds nuw i8, ptr %21, i64 32
  store ptr %4, ptr %40, align 8, !tbaa !63
  %41 = getelementptr inbounds nuw i8, ptr %21, i64 40
  store ptr %5, ptr %41, align 8, !tbaa !87
  %42 = getelementptr inbounds nuw i8, ptr %21, i64 48
  store ptr %6, ptr %42, align 8, !tbaa !88
  %43 = getelementptr inbounds nuw i8, ptr %21, i64 56
  store ptr %7, ptr %43, align 8, !tbaa !89
  %44 = getelementptr inbounds nuw i8, ptr %21, i64 64
  store ptr %8, ptr %44, align 8, !tbaa !90
  %45 = getelementptr inbounds nuw i8, ptr %21, i64 72
  store ptr %9, ptr %45, align 8, !tbaa !91
  %46 = getelementptr inbounds nuw i8, ptr %21, i64 80
  store ptr %10, ptr %46, align 8, !tbaa !74
  %.not52 = icmp eq ptr %11, null
  %spec.select = select i1 %.not52, ptr @memcmp, ptr %11
  %47 = getelementptr inbounds nuw i8, ptr %21, i64 88
  store ptr %spec.select, ptr %47, align 8, !tbaa !92
  %48 = getelementptr inbounds nuw i8, ptr %21, i64 96
  store ptr %12, ptr %48, align 8, !tbaa !82
  br label %.thread

49:                                               ; preds = %32
  %50 = load i64, ptr @H5E_RESOURCE_g, align 8, !tbaa !10
  %51 = load i64, ptr @H5E_NOSPACE_g, align 8, !tbaa !10
  %52 = tail call i32 (ptr, ptr, i32, i64, i64, ptr, ...) @H5E_printf_stack(ptr noundef nonnull @.str.7, ptr noundef nonnull @__func__.H5P__create_prop, i32 noundef 1316, i64 noundef %50, i64 noundef %51, ptr noundef nonnull @.str.20) #14
  %.not53 = icmp eq ptr %28, null
  br i1 %.not53, label %55, label %53

53:                                               ; preds = %49
  %54 = tail call ptr @H5MM_xfree(ptr noundef nonnull %28) #14
  br label %55

55:                                               ; preds = %49, %53
  %56 = tail call ptr @H5FL_reg_free(ptr noundef nonnull @H5_H5P_genprop_t_reg_free_list, ptr noundef nonnull %21) #14
  br label %.thread

.thread:                                          ; preds = %23, %39, %55, %13
  %.0 = phi ptr [ null, %55 ], [ null, %13 ], [ %21, %39 ], [ null, %23 ]
  ret ptr %.0
}